
gpio_mgmt.elf:     file format elf32-littleriscv


Disassembly of section .vectors:

00000000 <_vectors_start>:
   0:	0840006f          	j	84 <_vectors_end>
   4:	0800006f          	j	84 <_vectors_end>
   8:	07c0006f          	j	84 <_vectors_end>
   c:	0780006f          	j	84 <_vectors_end>
  10:	0740006f          	j	84 <_vectors_end>
  14:	0700006f          	j	84 <_vectors_end>
  18:	06c0006f          	j	84 <_vectors_end>
  1c:	06c0006f          	j	88 <timer_handler>
  20:	0640006f          	j	84 <_vectors_end>
  24:	0600006f          	j	84 <_vectors_end>
  28:	05c0006f          	j	84 <_vectors_end>
  2c:	0580006f          	j	84 <_vectors_end>
  30:	0540006f          	j	84 <_vectors_end>
  34:	0500006f          	j	84 <_vectors_end>
  38:	04c0006f          	j	84 <_vectors_end>
  3c:	0480006f          	j	84 <_vectors_end>
  40:	0440006f          	j	84 <_vectors_end>
  44:	0400006f          	j	84 <_vectors_end>
  48:	03c0006f          	j	84 <_vectors_end>
  4c:	0380006f          	j	84 <_vectors_end>
  50:	0340006f          	j	84 <_vectors_end>
  54:	0300006f          	j	84 <_vectors_end>
  58:	02c0006f          	j	84 <_vectors_end>
  5c:	0280006f          	j	84 <_vectors_end>
  60:	0240006f          	j	84 <_vectors_end>
  64:	0200006f          	j	84 <_vectors_end>
  68:	01c0006f          	j	84 <_vectors_end>
  6c:	0180006f          	j	84 <_vectors_end>
  70:	0140006f          	j	84 <_vectors_end>
  74:	0100006f          	j	84 <_vectors_end>
  78:	00c0006f          	j	84 <_vectors_end>
  7c:	0000                	unimp
  7e:	0000                	unimp
  80:	00c0006f          	j	8c <reset_handler>

Disassembly of section .text:

00000084 <default_exc_handler>:
  84:	2d40006f          	j	358 <simple_exc_handler>

00000088 <timer_handler>:
  88:	4940006f          	j	51c <simple_timer_handler>

0000008c <reset_handler>:
  8c:	00000093          	li	ra,0
  90:	8106                	mv	sp,ra
  92:	8186                	mv	gp,ra
  94:	8206                	mv	tp,ra
  96:	8286                	mv	t0,ra
  98:	8306                	mv	t1,ra
  9a:	8386                	mv	t2,ra
  9c:	8406                	mv	s0,ra
  9e:	8486                	mv	s1,ra
  a0:	8506                	mv	a0,ra
  a2:	8586                	mv	a1,ra
  a4:	8606                	mv	a2,ra
  a6:	8686                	mv	a3,ra
  a8:	8706                	mv	a4,ra
  aa:	8786                	mv	a5,ra
  ac:	8806                	mv	a6,ra
  ae:	8886                	mv	a7,ra
  b0:	8906                	mv	s2,ra
  b2:	8986                	mv	s3,ra
  b4:	8a06                	mv	s4,ra
  b6:	8a86                	mv	s5,ra
  b8:	8b06                	mv	s6,ra
  ba:	8b86                	mv	s7,ra
  bc:	8c06                	mv	s8,ra
  be:	8c86                	mv	s9,ra
  c0:	8d06                	mv	s10,ra
  c2:	8d86                	mv	s11,ra
  c4:	8e06                	mv	t3,ra
  c6:	8e86                	mv	t4,ra
  c8:	8f06                	mv	t5,ra
  ca:	8f86                	mv	t6,ra
  cc:	01001137          	lui	sp,0x1001
  d0:	80010113          	addi	sp,sp,-2048 # 1000800 <tohost+0xfe07f8>

000000d4 <_start>:
  d4:	00000d13          	li	s10,0
  d8:	01000d93          	li	s11,16
  dc:	01bd5763          	bge	s10,s11,ea <main_entry>

000000e0 <zero_loop>:
  e0:	000d2023          	sw	zero,0(s10)
  e4:	0d11                	addi	s10,s10,4
  e6:	ffaddde3          	bge	s11,s10,e0 <zero_loop>

000000ea <main_entry>:
  ea:	00000513          	li	a0,0
  ee:	00000593          	li	a1,0
  f2:	4d0000ef          	jal	ra,5c2 <main>

000000f6 <sleep_loop>:
  f6:	10500073          	wfi
  fa:	bff5                	j	f6 <sleep_loop>

000000fc <putchar>:
  fc:	1101                	addi	sp,sp,-32
  fe:	ce22                	sw	s0,28(sp)
 100:	1000                	addi	s0,sp,32
 102:	fea42623          	sw	a0,-20(s0)
 106:	fec42783          	lw	a5,-20(s0)
 10a:	0ff7f713          	andi	a4,a5,255
 10e:	000207b7          	lui	a5,0x20
 112:	c398                	sw	a4,0(a5)
 114:	fec42783          	lw	a5,-20(s0)
 118:	853e                	mv	a0,a5
 11a:	4472                	lw	s0,28(sp)
 11c:	6105                	addi	sp,sp,32
 11e:	8082                	ret

00000120 <puts>:
 120:	1101                	addi	sp,sp,-32
 122:	ce06                	sw	ra,28(sp)
 124:	cc22                	sw	s0,24(sp)
 126:	1000                	addi	s0,sp,32
 128:	fea42623          	sw	a0,-20(s0)
 12c:	a819                	j	142 <puts+0x22>
 12e:	fec42783          	lw	a5,-20(s0)
 132:	00178713          	addi	a4,a5,1 # 20001 <main+0x1fa3f>
 136:	fee42623          	sw	a4,-20(s0)
 13a:	0007c783          	lbu	a5,0(a5)
 13e:	853e                	mv	a0,a5
 140:	3f75                	jal	fc <putchar>
 142:	fec42783          	lw	a5,-20(s0)
 146:	0007c783          	lbu	a5,0(a5)
 14a:	f3f5                	bnez	a5,12e <puts+0xe>
 14c:	4781                	li	a5,0
 14e:	853e                	mv	a0,a5
 150:	40f2                	lw	ra,28(sp)
 152:	4462                	lw	s0,24(sp)
 154:	6105                	addi	sp,sp,32
 156:	8082                	ret

00000158 <puthex>:
 158:	7179                	addi	sp,sp,-48
 15a:	d606                	sw	ra,44(sp)
 15c:	d422                	sw	s0,40(sp)
 15e:	1800                	addi	s0,sp,48
 160:	fca42e23          	sw	a0,-36(s0)
 164:	fe042623          	sw	zero,-20(s0)
 168:	a091                	j	1ac <puthex+0x54>
 16a:	fdc42783          	lw	a5,-36(s0)
 16e:	83f1                	srli	a5,a5,0x1c
 170:	fef42423          	sw	a5,-24(s0)
 174:	fe842703          	lw	a4,-24(s0)
 178:	47a5                	li	a5,9
 17a:	00e7c963          	blt	a5,a4,18c <puthex+0x34>
 17e:	fe842783          	lw	a5,-24(s0)
 182:	03078793          	addi	a5,a5,48
 186:	853e                	mv	a0,a5
 188:	3f95                	jal	fc <putchar>
 18a:	a039                	j	198 <puthex+0x40>
 18c:	fe842783          	lw	a5,-24(s0)
 190:	03778793          	addi	a5,a5,55
 194:	853e                	mv	a0,a5
 196:	379d                	jal	fc <putchar>
 198:	fdc42783          	lw	a5,-36(s0)
 19c:	0792                	slli	a5,a5,0x4
 19e:	fcf42e23          	sw	a5,-36(s0)
 1a2:	fec42783          	lw	a5,-20(s0)
 1a6:	0785                	addi	a5,a5,1
 1a8:	fef42623          	sw	a5,-20(s0)
 1ac:	fec42703          	lw	a4,-20(s0)
 1b0:	479d                	li	a5,7
 1b2:	fae7dce3          	bge	a5,a4,16a <puthex+0x12>
 1b6:	0001                	nop
 1b8:	0001                	nop
 1ba:	50b2                	lw	ra,44(sp)
 1bc:	5422                	lw	s0,40(sp)
 1be:	6145                	addi	sp,sp,48
 1c0:	8082                	ret

000001c2 <sim_halt>:
 1c2:	1141                	addi	sp,sp,-16
 1c4:	c622                	sw	s0,12(sp)
 1c6:	0800                	addi	s0,sp,16
 1c8:	000207b7          	lui	a5,0x20
 1cc:	07a1                	addi	a5,a5,8
 1ce:	4705                	li	a4,1
 1d0:	c398                	sw	a4,0(a5)
 1d2:	0001                	nop
 1d4:	4432                	lw	s0,12(sp)
 1d6:	0141                	addi	sp,sp,16
 1d8:	8082                	ret

000001da <pcount_reset>:
 1da:	1141                	addi	sp,sp,-16
 1dc:	c622                	sw	s0,12(sp)
 1de:	0800                	addi	s0,sp,16
 1e0:	b0201073          	csrw	minstret,zero
 1e4:	b0001073          	csrw	mcycle,zero
 1e8:	b0301073          	csrw	mhpmcounter3,zero
 1ec:	b0401073          	csrw	mhpmcounter4,zero
 1f0:	b0501073          	csrw	mhpmcounter5,zero
 1f4:	b0601073          	csrw	mhpmcounter6,zero
 1f8:	b0701073          	csrw	mhpmcounter7,zero
 1fc:	b0801073          	csrw	mhpmcounter8,zero
 200:	b0901073          	csrw	mhpmcounter9,zero
 204:	b0a01073          	csrw	mhpmcounter10,zero
 208:	b0b01073          	csrw	mhpmcounter11,zero
 20c:	b0c01073          	csrw	mhpmcounter12,zero
 210:	b0d01073          	csrw	mhpmcounter13,zero
 214:	b0e01073          	csrw	mhpmcounter14,zero
 218:	b0f01073          	csrw	mhpmcounter15,zero
 21c:	b1001073          	csrw	mhpmcounter16,zero
 220:	b1101073          	csrw	mhpmcounter17,zero
 224:	b1201073          	csrw	mhpmcounter18,zero
 228:	b1301073          	csrw	mhpmcounter19,zero
 22c:	b1401073          	csrw	mhpmcounter20,zero
 230:	b1501073          	csrw	mhpmcounter21,zero
 234:	b1601073          	csrw	mhpmcounter22,zero
 238:	b1701073          	csrw	mhpmcounter23,zero
 23c:	b1801073          	csrw	mhpmcounter24,zero
 240:	b1901073          	csrw	mhpmcounter25,zero
 244:	b1a01073          	csrw	mhpmcounter26,zero
 248:	b1b01073          	csrw	mhpmcounter27,zero
 24c:	b1c01073          	csrw	mhpmcounter28,zero
 250:	b1d01073          	csrw	mhpmcounter29,zero
 254:	b1e01073          	csrw	mhpmcounter30,zero
 258:	b1f01073          	csrw	mhpmcounter31,zero
 25c:	b8201073          	csrw	minstreth,zero
 260:	b8001073          	csrw	mcycleh,zero
 264:	b8301073          	csrw	mhpmcounter3h,zero
 268:	b8401073          	csrw	mhpmcounter4h,zero
 26c:	b8501073          	csrw	mhpmcounter5h,zero
 270:	b8601073          	csrw	mhpmcounter6h,zero
 274:	b8701073          	csrw	mhpmcounter7h,zero
 278:	b8801073          	csrw	mhpmcounter8h,zero
 27c:	b8901073          	csrw	mhpmcounter9h,zero
 280:	b8a01073          	csrw	mhpmcounter10h,zero
 284:	b8b01073          	csrw	mhpmcounter11h,zero
 288:	b8c01073          	csrw	mhpmcounter12h,zero
 28c:	b8d01073          	csrw	mhpmcounter13h,zero
 290:	b8e01073          	csrw	mhpmcounter14h,zero
 294:	b8f01073          	csrw	mhpmcounter15h,zero
 298:	b9001073          	csrw	mhpmcounter16h,zero
 29c:	b9101073          	csrw	mhpmcounter17h,zero
 2a0:	b9201073          	csrw	mhpmcounter18h,zero
 2a4:	b9301073          	csrw	mhpmcounter19h,zero
 2a8:	b9401073          	csrw	mhpmcounter20h,zero
 2ac:	b9501073          	csrw	mhpmcounter21h,zero
 2b0:	b9601073          	csrw	mhpmcounter22h,zero
 2b4:	b9701073          	csrw	mhpmcounter23h,zero
 2b8:	b9801073          	csrw	mhpmcounter24h,zero
 2bc:	b9901073          	csrw	mhpmcounter25h,zero
 2c0:	b9a01073          	csrw	mhpmcounter26h,zero
 2c4:	b9b01073          	csrw	mhpmcounter27h,zero
 2c8:	b9c01073          	csrw	mhpmcounter28h,zero
 2cc:	b9d01073          	csrw	mhpmcounter29h,zero
 2d0:	b9e01073          	csrw	mhpmcounter30h,zero
 2d4:	b9f01073          	csrw	mhpmcounter31h,zero
 2d8:	0001                	nop
 2da:	4432                	lw	s0,12(sp)
 2dc:	0141                	addi	sp,sp,16
 2de:	8082                	ret

000002e0 <pcount_enable>:
 2e0:	7179                	addi	sp,sp,-48
 2e2:	d622                	sw	s0,44(sp)
 2e4:	1800                	addi	s0,sp,48
 2e6:	fca42e23          	sw	a0,-36(s0)
 2ea:	fdc42783          	lw	a5,-36(s0)
 2ee:	c399                	beqz	a5,2f4 <pcount_enable+0x14>
 2f0:	4781                	li	a5,0
 2f2:	a011                	j	2f6 <pcount_enable+0x16>
 2f4:	57fd                	li	a5,-1
 2f6:	fef42623          	sw	a5,-20(s0)
 2fa:	fec42783          	lw	a5,-20(s0)
 2fe:	32079073          	csrw	mucounteren,a5
 302:	0001                	nop
 304:	5432                	lw	s0,44(sp)
 306:	6145                	addi	sp,sp,48
 308:	8082                	ret

0000030a <get_mepc>:
 30a:	1101                	addi	sp,sp,-32
 30c:	ce22                	sw	s0,28(sp)
 30e:	1000                	addi	s0,sp,32
 310:	341027f3          	csrr	a5,mepc
 314:	fef42623          	sw	a5,-20(s0)
 318:	fec42783          	lw	a5,-20(s0)
 31c:	853e                	mv	a0,a5
 31e:	4472                	lw	s0,28(sp)
 320:	6105                	addi	sp,sp,32
 322:	8082                	ret

00000324 <get_mcause>:
 324:	1101                	addi	sp,sp,-32
 326:	ce22                	sw	s0,28(sp)
 328:	1000                	addi	s0,sp,32
 32a:	342027f3          	csrr	a5,mcause
 32e:	fef42623          	sw	a5,-20(s0)
 332:	fec42783          	lw	a5,-20(s0)
 336:	853e                	mv	a0,a5
 338:	4472                	lw	s0,28(sp)
 33a:	6105                	addi	sp,sp,32
 33c:	8082                	ret

0000033e <get_mtval>:
 33e:	1101                	addi	sp,sp,-32
 340:	ce22                	sw	s0,28(sp)
 342:	1000                	addi	s0,sp,32
 344:	343027f3          	csrr	a5,mtval
 348:	fef42623          	sw	a5,-20(s0)
 34c:	fec42783          	lw	a5,-20(s0)
 350:	853e                	mv	a0,a5
 352:	4472                	lw	s0,28(sp)
 354:	6105                	addi	sp,sp,32
 356:	8082                	ret

00000358 <simple_exc_handler>:
 358:	1141                	addi	sp,sp,-16
 35a:	c606                	sw	ra,12(sp)
 35c:	c422                	sw	s0,8(sp)
 35e:	0800                	addi	s0,sp,16
 360:	67000513          	li	a0,1648
 364:	3b75                	jal	120 <puts>
 366:	68000513          	li	a0,1664
 36a:	3b5d                	jal	120 <puts>
 36c:	69000513          	li	a0,1680
 370:	3b45                	jal	120 <puts>
 372:	3f61                	jal	30a <get_mepc>
 374:	87aa                	mv	a5,a0
 376:	853e                	mv	a0,a5
 378:	33c5                	jal	158 <puthex>
 37a:	69c00513          	li	a0,1692
 37e:	334d                	jal	120 <puts>
 380:	3755                	jal	324 <get_mcause>
 382:	87aa                	mv	a5,a0
 384:	853e                	mv	a0,a5
 386:	3bc9                	jal	158 <puthex>
 388:	6a800513          	li	a0,1704
 38c:	3b51                	jal	120 <puts>
 38e:	3f45                	jal	33e <get_mtval>
 390:	87aa                	mv	a5,a0
 392:	853e                	mv	a0,a5
 394:	33d1                	jal	158 <puthex>
 396:	4529                	li	a0,10
 398:	3395                	jal	fc <putchar>
 39a:	3525                	jal	1c2 <sim_halt>
 39c:	a001                	j	39c <simple_exc_handler+0x44>

0000039e <increment_timecmp>:
 39e:	7179                	addi	sp,sp,-48
 3a0:	d606                	sw	ra,44(sp)
 3a2:	d422                	sw	s0,40(sp)
 3a4:	1800                	addi	s0,sp,48
 3a6:	fca42c23          	sw	a0,-40(s0)
 3aa:	fcb42e23          	sw	a1,-36(s0)
 3ae:	207d                	jal	45c <timer_read>
 3b0:	fea42423          	sw	a0,-24(s0)
 3b4:	feb42623          	sw	a1,-20(s0)
 3b8:	fe842603          	lw	a2,-24(s0)
 3bc:	fec42683          	lw	a3,-20(s0)
 3c0:	fd842503          	lw	a0,-40(s0)
 3c4:	fdc42583          	lw	a1,-36(s0)
 3c8:	00a60733          	add	a4,a2,a0
 3cc:	883a                	mv	a6,a4
 3ce:	00c83833          	sltu	a6,a6,a2
 3d2:	00b687b3          	add	a5,a3,a1
 3d6:	00f806b3          	add	a3,a6,a5
 3da:	87b6                	mv	a5,a3
 3dc:	fee42423          	sw	a4,-24(s0)
 3e0:	fef42623          	sw	a5,-20(s0)
 3e4:	fe842503          	lw	a0,-24(s0)
 3e8:	fec42583          	lw	a1,-20(s0)
 3ec:	28e1                	jal	4c4 <timecmp_update>
 3ee:	0001                	nop
 3f0:	50b2                	lw	ra,44(sp)
 3f2:	5422                	lw	s0,40(sp)
 3f4:	6145                	addi	sp,sp,48
 3f6:	8082                	ret

000003f8 <timer_enable>:
 3f8:	1101                	addi	sp,sp,-32
 3fa:	ce06                	sw	ra,28(sp)
 3fc:	cc22                	sw	s0,24(sp)
 3fe:	1000                	addi	s0,sp,32
 400:	fea42423          	sw	a0,-24(s0)
 404:	feb42623          	sw	a1,-20(s0)
 408:	4681                	li	a3,0
 40a:	4701                	li	a4,0
 40c:	00d02023          	sw	a3,0(zero) # 0 <time_elapsed>
 410:	00e02223          	sw	a4,4(zero) # 4 <time_elapsed+0x4>
 414:	fe842703          	lw	a4,-24(s0)
 418:	fec42783          	lw	a5,-20(s0)
 41c:	00e02423          	sw	a4,8(zero) # 8 <time_increment>
 420:	00f02623          	sw	a5,12(zero) # c <time_increment+0x4>
 424:	fe842503          	lw	a0,-24(s0)
 428:	fec42583          	lw	a1,-20(s0)
 42c:	3f8d                	jal	39e <increment_timecmp>
 42e:	08000793          	li	a5,128
 432:	3047a073          	csrs	mie,a5
 436:	47a1                	li	a5,8
 438:	3007a073          	csrs	mstatus,a5
 43c:	0001                	nop
 43e:	40f2                	lw	ra,28(sp)
 440:	4462                	lw	s0,24(sp)
 442:	6105                	addi	sp,sp,32
 444:	8082                	ret

00000446 <timer_disable>:
 446:	1141                	addi	sp,sp,-16
 448:	c622                	sw	s0,12(sp)
 44a:	0800                	addi	s0,sp,16
 44c:	08000793          	li	a5,128
 450:	3047b073          	csrc	mie,a5
 454:	0001                	nop
 456:	4432                	lw	s0,12(sp)
 458:	0141                	addi	sp,sp,16
 45a:	8082                	ret

0000045c <timer_read>:
 45c:	1101                	addi	sp,sp,-32
 45e:	ce22                	sw	s0,28(sp)
 460:	1000                	addi	s0,sp,32
 462:	00030837          	lui	a6,0x30
 466:	0811                	addi	a6,a6,4
 468:	00082803          	lw	a6,0(a6) # 30000 <tohost+0xfff8>
 46c:	ff042623          	sw	a6,-20(s0)
 470:	00030837          	lui	a6,0x30
 474:	00082803          	lw	a6,0(a6) # 30000 <tohost+0xfff8>
 478:	ff042423          	sw	a6,-24(s0)
 47c:	00030837          	lui	a6,0x30
 480:	0811                	addi	a6,a6,4
 482:	00082803          	lw	a6,0(a6) # 30000 <tohost+0xfff8>
 486:	fec42883          	lw	a7,-20(s0)
 48a:	fd089ce3          	bne	a7,a6,462 <timer_read+0x6>
 48e:	fec42803          	lw	a6,-20(s0)
 492:	8542                	mv	a0,a6
 494:	4581                	li	a1,0
 496:	00051793          	slli	a5,a0,0x0
 49a:	4701                	li	a4,0
 49c:	fe842583          	lw	a1,-24(s0)
 4a0:	862e                	mv	a2,a1
 4a2:	4681                	li	a3,0
 4a4:	00c765b3          	or	a1,a4,a2
 4a8:	feb42023          	sw	a1,-32(s0)
 4ac:	8fd5                	or	a5,a5,a3
 4ae:	fef42223          	sw	a5,-28(s0)
 4b2:	fe042703          	lw	a4,-32(s0)
 4b6:	fe442783          	lw	a5,-28(s0)
 4ba:	853a                	mv	a0,a4
 4bc:	85be                	mv	a1,a5
 4be:	4472                	lw	s0,28(sp)
 4c0:	6105                	addi	sp,sp,32
 4c2:	8082                	ret

000004c4 <timecmp_update>:
 4c4:	1101                	addi	sp,sp,-32
 4c6:	ce22                	sw	s0,28(sp)
 4c8:	1000                	addi	s0,sp,32
 4ca:	fea42423          	sw	a0,-24(s0)
 4ce:	feb42623          	sw	a1,-20(s0)
 4d2:	000306b7          	lui	a3,0x30
 4d6:	06a1                	addi	a3,a3,8
 4d8:	567d                	li	a2,-1
 4da:	c290                	sw	a2,0(a3)
 4dc:	fec42683          	lw	a3,-20(s0)
 4e0:	0006d713          	srli	a4,a3,0x0
 4e4:	4781                	li	a5,0
 4e6:	000306b7          	lui	a3,0x30
 4ea:	06b1                	addi	a3,a3,12
 4ec:	87ba                	mv	a5,a4
 4ee:	c29c                	sw	a5,0(a3)
 4f0:	000307b7          	lui	a5,0x30
 4f4:	07a1                	addi	a5,a5,8
 4f6:	fe842703          	lw	a4,-24(s0)
 4fa:	c398                	sw	a4,0(a5)
 4fc:	0001                	nop
 4fe:	4472                	lw	s0,28(sp)
 500:	6105                	addi	sp,sp,32
 502:	8082                	ret

00000504 <get_elapsed_time>:
 504:	1141                	addi	sp,sp,-16
 506:	c622                	sw	s0,12(sp)
 508:	0800                	addi	s0,sp,16
 50a:	00002703          	lw	a4,0(zero) # 0 <time_elapsed>
 50e:	00402783          	lw	a5,4(zero) # 4 <time_elapsed+0x4>
 512:	853a                	mv	a0,a4
 514:	85be                	mv	a1,a5
 516:	4432                	lw	s0,12(sp)
 518:	0141                	addi	sp,sp,16
 51a:	8082                	ret

0000051c <simple_timer_handler>:
 51c:	715d                	addi	sp,sp,-80
 51e:	c686                	sw	ra,76(sp)
 520:	c496                	sw	t0,72(sp)
 522:	c29a                	sw	t1,68(sp)
 524:	c09e                	sw	t2,64(sp)
 526:	de22                	sw	s0,60(sp)
 528:	dc2a                	sw	a0,56(sp)
 52a:	da2e                	sw	a1,52(sp)
 52c:	d832                	sw	a2,48(sp)
 52e:	d636                	sw	a3,44(sp)
 530:	d43a                	sw	a4,40(sp)
 532:	d23e                	sw	a5,36(sp)
 534:	d042                	sw	a6,32(sp)
 536:	ce46                	sw	a7,28(sp)
 538:	cc72                	sw	t3,24(sp)
 53a:	ca76                	sw	t4,20(sp)
 53c:	c87a                	sw	t5,16(sp)
 53e:	c67e                	sw	t6,12(sp)
 540:	0880                	addi	s0,sp,80
 542:	00802703          	lw	a4,8(zero) # 8 <time_increment>
 546:	00c02783          	lw	a5,12(zero) # c <time_increment+0x4>
 54a:	853a                	mv	a0,a4
 54c:	85be                	mv	a1,a5
 54e:	3d81                	jal	39e <increment_timecmp>
 550:	00002703          	lw	a4,0(zero) # 0 <time_elapsed>
 554:	00402783          	lw	a5,4(zero) # 4 <time_elapsed+0x4>
 558:	4505                	li	a0,1
 55a:	4581                	li	a1,0
 55c:	00a70633          	add	a2,a4,a0
 560:	8832                	mv	a6,a2
 562:	00e83833          	sltu	a6,a6,a4
 566:	00b786b3          	add	a3,a5,a1
 56a:	00d807b3          	add	a5,a6,a3
 56e:	86be                	mv	a3,a5
 570:	8732                	mv	a4,a2
 572:	87b6                	mv	a5,a3
 574:	00e02023          	sw	a4,0(zero) # 0 <time_elapsed>
 578:	00f02223          	sw	a5,4(zero) # 4 <time_elapsed+0x4>
 57c:	0001                	nop
 57e:	40b6                	lw	ra,76(sp)
 580:	42a6                	lw	t0,72(sp)
 582:	4316                	lw	t1,68(sp)
 584:	4386                	lw	t2,64(sp)
 586:	5472                	lw	s0,60(sp)
 588:	5562                	lw	a0,56(sp)
 58a:	55d2                	lw	a1,52(sp)
 58c:	5642                	lw	a2,48(sp)
 58e:	56b2                	lw	a3,44(sp)
 590:	5722                	lw	a4,40(sp)
 592:	5792                	lw	a5,36(sp)
 594:	5802                	lw	a6,32(sp)
 596:	48f2                	lw	a7,28(sp)
 598:	4e62                	lw	t3,24(sp)
 59a:	4ed2                	lw	t4,20(sp)
 59c:	4f42                	lw	t5,16(sp)
 59e:	4fb2                	lw	t6,12(sp)
 5a0:	6161                	addi	sp,sp,80
 5a2:	30200073          	mret

000005a6 <flush_cpu_icache>:
 5a6:	1141                	addi	sp,sp,-16
 5a8:	c622                	sw	s0,12(sp)
 5aa:	0800                	addi	s0,sp,16
 5ac:	0001                	nop
 5ae:	4432                	lw	s0,12(sp)
 5b0:	0141                	addi	sp,sp,16
 5b2:	8082                	ret

000005b4 <flush_cpu_dcache>:
 5b4:	1141                	addi	sp,sp,-16
 5b6:	c622                	sw	s0,12(sp)
 5b8:	0800                	addi	s0,sp,16
 5ba:	0001                	nop
 5bc:	4432                	lw	s0,12(sp)
 5be:	0141                	addi	sp,sp,16
 5c0:	8082                	ret

000005c2 <main>:
 5c2:	1101                	addi	sp,sp,-32
 5c4:	ce22                	sw	s0,28(sp)
 5c6:	1000                	addi	s0,sp,32
 5c8:	820037b7          	lui	a5,0x82003
 5cc:	80078793          	addi	a5,a5,-2048 # 82002800 <_stack_start+0x82002801>
 5d0:	4705                	li	a4,1
 5d2:	c398                	sw	a4,0(a5)
 5d4:	820037b7          	lui	a5,0x82003
 5d8:	80478793          	addi	a5,a5,-2044 # 82002804 <_stack_start+0x82002805>
 5dc:	4705                	li	a4,1
 5de:	c398                	sw	a4,0(a5)
 5e0:	820037b7          	lui	a5,0x82003
 5e4:	80878793          	addi	a5,a5,-2040 # 82002808 <_stack_start+0x82002809>
 5e8:	4705                	li	a4,1
 5ea:	c398                	sw	a4,0(a5)
 5ec:	820037b7          	lui	a5,0x82003
 5f0:	80c78793          	addi	a5,a5,-2036 # 8200280c <_stack_start+0x8200280d>
 5f4:	4705                	li	a4,1
 5f6:	c398                	sw	a4,0(a5)
 5f8:	820037b7          	lui	a5,0x82003
 5fc:	81478793          	addi	a5,a5,-2028 # 82002814 <_stack_start+0x82002815>
 600:	4705                	li	a4,1
 602:	c398                	sw	a4,0(a5)
 604:	820037b7          	lui	a5,0x82003
 608:	81478793          	addi	a5,a5,-2028 # 82002814 <_stack_start+0x82002815>
 60c:	0007a023          	sw	zero,0(a5)
 610:	820037b7          	lui	a5,0x82003
 614:	81478793          	addi	a5,a5,-2028 # 82002814 <_stack_start+0x82002815>
 618:	0007a023          	sw	zero,0(a5)
 61c:	820037b7          	lui	a5,0x82003
 620:	80878793          	addi	a5,a5,-2040 # 82002808 <_stack_start+0x82002809>
 624:	4705                	li	a4,1
 626:	c398                	sw	a4,0(a5)
 628:	820037b7          	lui	a5,0x82003
 62c:	80c78793          	addi	a5,a5,-2036 # 8200280c <_stack_start+0x8200280d>
 630:	0007a023          	sw	zero,0(a5)
 634:	fe042623          	sw	zero,-20(s0)
 638:	a015                	j	65c <main+0x9a>
 63a:	820037b7          	lui	a5,0x82003
 63e:	81478793          	addi	a5,a5,-2028 # 82002814 <_stack_start+0x82002815>
 642:	4705                	li	a4,1
 644:	c398                	sw	a4,0(a5)
 646:	820037b7          	lui	a5,0x82003
 64a:	81478793          	addi	a5,a5,-2028 # 82002814 <_stack_start+0x82002815>
 64e:	0007a023          	sw	zero,0(a5)
 652:	fec42783          	lw	a5,-20(s0)
 656:	0785                	addi	a5,a5,1
 658:	fef42623          	sw	a5,-20(s0)
 65c:	fec42703          	lw	a4,-20(s0)
 660:	47a5                	li	a5,9
 662:	fce7dce3          	bge	a5,a4,63a <main+0x78>
 666:	0001                	nop
 668:	0001                	nop
 66a:	4472                	lw	s0,28(sp)
 66c:	6105                	addi	sp,sp,32
 66e:	8082                	ret

Disassembly of section .rodata:

00000670 <.rodata>:
 670:	5845                	li	a6,-15
 672:	54504543          	0x54504543
 676:	4f49                	li	t5,18
 678:	214e                	fld	ft2,208(sp)
 67a:	2121                	jal	a82 <main+0x4c0>
 67c:	000a                	c.slli	zero,0x2
 67e:	0000                	unimp
 680:	3d3d                	jal	4be <timer_read+0x62>
 682:	3d3d                	jal	4c0 <timer_read+0x64>
 684:	3d3d                	jal	4c2 <timer_read+0x66>
 686:	3d3d                	jal	4c4 <timecmp_update>
 688:	3d3d                	jal	4c6 <timecmp_update+0x2>
 68a:	3d3d                	jal	4c8 <timecmp_update+0x4>
 68c:	000a                	c.slli	zero,0x2
 68e:	0000                	unimp
 690:	454d                	li	a0,19
 692:	4350                	lw	a2,4(a4)
 694:	203a                	fld	ft0,392(sp)
 696:	2020                	fld	fs0,64(s0)
 698:	7830                	flw	fa2,112(s0)
 69a:	0000                	unimp
 69c:	4d0a                	lw	s10,128(sp)
 69e:	53554143          	fmadd.d	ft2,fa0,fs5,fa0,rmm
 6a2:	3a45                	jal	52 <_bss_end+0x42>
 6a4:	3020                	fld	fs0,96(s0)
 6a6:	0078                	addi	a4,sp,12
 6a8:	4d0a                	lw	s10,128(sp)
 6aa:	5654                	lw	a3,44(a2)
 6ac:	4c41                	li	s8,16
 6ae:	203a                	fld	ft0,392(sp)
 6b0:	3020                	fld	fs0,96(s0)
 6b2:	0078                	addi	a4,sp,12

Disassembly of section .bss:

00000000 <time_elapsed>:
	...

00000008 <time_increment>:
	...

Disassembly of section .riscv.attributes:

00000000 <.riscv.attributes>:
   0:	2541                	jal	680 <main+0xbe>
   2:	0000                	unimp
   4:	7200                	flw	fs0,32(a2)
   6:	7369                	lui	t1,0xffffa
   8:	01007663          	bgeu	zero,a6,14 <_bss_end+0x4>
   c:	0000001b          	0x1b
  10:	1004                	addi	s1,sp,32
  12:	7205                	lui	tp,0xfffe1
  14:	3376                	fld	ft6,376(sp)
  16:	6932                	flw	fs2,12(sp)
  18:	7032                	flw	ft0,44(sp)
  1a:	5f30                	lw	a2,120(a4)
  1c:	326d                	jal	fffff9c6 <_stack_start+0xfffff9c7>
  1e:	3070                	fld	fa2,224(s0)
  20:	635f 7032 0030      	0x307032635f

Disassembly of section .comment:

00000000 <.comment>:
   0:	3a434347          	fmsub.d	ft6,ft6,ft4,ft7,rmm
   4:	2820                	fld	fs0,80(s0)
   6:	29554e47          	fmsub.s	ft8,fa0,fs5,ft5,rmm
   a:	3920                	fld	fs0,112(a0)
   c:	322e                	fld	ft4,232(sp)
   e:	302e                	fld	ft0,232(sp)
	...
