
gpio_mgmt.elf:     file format elf32-littleriscv


Disassembly of section .text:

10000000 <_ftext>:
10000000:	0b00006f          	j	100000b0 <crt_init>
10000004:	00000013          	nop
10000008:	00000013          	nop
1000000c:	00000013          	nop
10000010:	00000013          	nop
10000014:	00000013          	nop
10000018:	00000013          	nop
1000001c:	00000013          	nop

10000020 <trap_entry>:
10000020:	fe112e23          	sw	ra,-4(sp)
10000024:	fe512c23          	sw	t0,-8(sp)
10000028:	fe612a23          	sw	t1,-12(sp)
1000002c:	fe712823          	sw	t2,-16(sp)
10000030:	fea12623          	sw	a0,-20(sp)
10000034:	feb12423          	sw	a1,-24(sp)
10000038:	fec12223          	sw	a2,-28(sp)
1000003c:	fed12023          	sw	a3,-32(sp)
10000040:	fce12e23          	sw	a4,-36(sp)
10000044:	fcf12c23          	sw	a5,-40(sp)
10000048:	fd012a23          	sw	a6,-44(sp)
1000004c:	fd112823          	sw	a7,-48(sp)
10000050:	fdc12623          	sw	t3,-52(sp)
10000054:	fdd12423          	sw	t4,-56(sp)
10000058:	fde12223          	sw	t5,-60(sp)
1000005c:	fdf12023          	sw	t6,-64(sp)
10000060:	fc010113          	addi	sp,sp,-64
10000064:	14c000ef          	jal	ra,100001b0 <isr>
10000068:	03c12083          	lw	ra,60(sp)
1000006c:	03812283          	lw	t0,56(sp)
10000070:	03412303          	lw	t1,52(sp)
10000074:	03012383          	lw	t2,48(sp)
10000078:	02c12503          	lw	a0,44(sp)
1000007c:	02812583          	lw	a1,40(sp)
10000080:	02412603          	lw	a2,36(sp)
10000084:	02012683          	lw	a3,32(sp)
10000088:	01c12703          	lw	a4,28(sp)
1000008c:	01812783          	lw	a5,24(sp)
10000090:	01412803          	lw	a6,20(sp)
10000094:	01012883          	lw	a7,16(sp)
10000098:	00c12e03          	lw	t3,12(sp)
1000009c:	00812e83          	lw	t4,8(sp)
100000a0:	00412f03          	lw	t5,4(sp)
100000a4:	00012f83          	lw	t6,0(sp)
100000a8:	04010113          	addi	sp,sp,64
100000ac:	30200073          	mret

100000b0 <crt_init>:
100000b0:	f1000117          	auipc	sp,0xf1000
100000b4:	75010113          	addi	sp,sp,1872 # 1000800 <_fstack>
100000b8:	00000517          	auipc	a0,0x0
100000bc:	f6850513          	addi	a0,a0,-152 # 10000020 <trap_entry>
100000c0:	30551073          	csrw	mtvec,a0

100000c4 <data_init>:
100000c4:	f1000517          	auipc	a0,0xf1000
100000c8:	f3c50513          	addi	a0,a0,-196 # 1000000 <flag>
100000cc:	f1000597          	auipc	a1,0xf1000
100000d0:	f3458593          	addi	a1,a1,-204 # 1000000 <flag>
100000d4:	00000617          	auipc	a2,0x0
100000d8:	28460613          	addi	a2,a2,644 # 10000358 <_etext>

100000dc <data_loop>:
100000dc:	00b50c63          	beq	a0,a1,100000f4 <bss_init>
100000e0:	00062683          	lw	a3,0(a2)
100000e4:	00d52023          	sw	a3,0(a0)
100000e8:	00450513          	addi	a0,a0,4
100000ec:	00460613          	addi	a2,a2,4
100000f0:	fedff06f          	j	100000dc <data_loop>

100000f4 <bss_init>:
100000f4:	f1000517          	auipc	a0,0xf1000
100000f8:	f0c50513          	addi	a0,a0,-244 # 1000000 <flag>
100000fc:	f1000597          	auipc	a1,0xf1000
10000100:	f0c58593          	addi	a1,a1,-244 # 1000008 <_ebss>

10000104 <bss_loop>:
10000104:	00b50863          	beq	a0,a1,10000114 <bss_done>
10000108:	00052023          	sw	zero,0(a0)
1000010c:	00450513          	addi	a0,a0,4
10000110:	ff5ff06f          	j	10000104 <bss_loop>

10000114 <bss_done>:
10000114:	00001537          	lui	a0,0x1
10000118:	88050513          	addi	a0,a0,-1920 # 880 <__DYNAMIC+0x880>
1000011c:	30451073          	csrw	mie,a0
10000120:	144000ef          	jal	ra,10000264 <main>

10000124 <infinit_loop>:
10000124:	0000006f          	j	10000124 <infinit_loop>

10000128 <flush_cpu_icache>:
10000128:	ff010113          	addi	sp,sp,-16
1000012c:	00812623          	sw	s0,12(sp)
10000130:	01010413          	addi	s0,sp,16
10000134:	00000013          	nop
10000138:	00c12403          	lw	s0,12(sp)
1000013c:	01010113          	addi	sp,sp,16
10000140:	00008067          	ret

10000144 <flush_cpu_dcache>:
10000144:	ff010113          	addi	sp,sp,-16
10000148:	00812623          	sw	s0,12(sp)
1000014c:	01010413          	addi	s0,sp,16
10000150:	00000013          	nop
10000154:	00c12403          	lw	s0,12(sp)
10000158:	01010113          	addi	sp,sp,16
1000015c:	00008067          	ret

10000160 <irq_getmask>:
10000160:	fe010113          	addi	sp,sp,-32
10000164:	00812e23          	sw	s0,28(sp)
10000168:	02010413          	addi	s0,sp,32
1000016c:	bc0027f3          	csrr	a5,0xbc0
10000170:	fef42623          	sw	a5,-20(s0)
10000174:	fec42783          	lw	a5,-20(s0)
10000178:	00078513          	mv	a0,a5
1000017c:	01c12403          	lw	s0,28(sp)
10000180:	02010113          	addi	sp,sp,32
10000184:	00008067          	ret

10000188 <irq_pending>:
10000188:	fe010113          	addi	sp,sp,-32
1000018c:	00812e23          	sw	s0,28(sp)
10000190:	02010413          	addi	s0,sp,32
10000194:	fc0027f3          	csrr	a5,0xfc0
10000198:	fef42623          	sw	a5,-20(s0)
1000019c:	fec42783          	lw	a5,-20(s0)
100001a0:	00078513          	mv	a0,a5
100001a4:	01c12403          	lw	s0,28(sp)
100001a8:	02010113          	addi	sp,sp,32
100001ac:	00008067          	ret

100001b0 <isr>:
100001b0:	fe010113          	addi	sp,sp,-32
100001b4:	00112e23          	sw	ra,28(sp)
100001b8:	00812c23          	sw	s0,24(sp)
100001bc:	00912a23          	sw	s1,20(sp)
100001c0:	02010413          	addi	s0,sp,32
100001c4:	fc5ff0ef          	jal	ra,10000188 <irq_pending>
100001c8:	00050493          	mv	s1,a0
100001cc:	f95ff0ef          	jal	ra,10000160 <irq_getmask>
100001d0:	00050793          	mv	a5,a0
100001d4:	00f4f7b3          	and	a5,s1,a5
100001d8:	fef42623          	sw	a5,-20(s0)
100001dc:	f00067b7          	lui	a5,0xf0006
100001e0:	81c78793          	addi	a5,a5,-2020 # f000581c <_etext+0xe00054c4>
100001e4:	0007a023          	sw	zero,0(a5)
100001e8:	f00037b7          	lui	a5,0xf0003
100001ec:	03878793          	addi	a5,a5,56 # f0003038 <_etext+0xe0002ce0>
100001f0:	00a00713          	li	a4,10
100001f4:	00e7a023          	sw	a4,0(a5)
100001f8:	f00037b7          	lui	a5,0xf0003
100001fc:	03c78793          	addi	a5,a5,60 # f000303c <_etext+0xe0002ce4>
10000200:	00020737          	lui	a4,0x20
10000204:	00e7a023          	sw	a4,0(a5)
10000208:	010007b7          	lui	a5,0x1000
1000020c:	00100713          	li	a4,1
10000210:	00e79023          	sh	a4,0(a5) # 1000000 <flag>
10000214:	00000013          	nop
10000218:	01c12083          	lw	ra,28(sp)
1000021c:	01812403          	lw	s0,24(sp)
10000220:	01412483          	lw	s1,20(sp)
10000224:	02010113          	addi	sp,sp,32
10000228:	00008067          	ret

1000022c <flush_cpu_icache>:
1000022c:	ff010113          	addi	sp,sp,-16
10000230:	00812623          	sw	s0,12(sp)
10000234:	01010413          	addi	s0,sp,16
10000238:	00000013          	nop
1000023c:	00c12403          	lw	s0,12(sp)
10000240:	01010113          	addi	sp,sp,16
10000244:	00008067          	ret

10000248 <flush_cpu_dcache>:
10000248:	ff010113          	addi	sp,sp,-16
1000024c:	00812623          	sw	s0,12(sp)
10000250:	01010413          	addi	s0,sp,16
10000254:	00000013          	nop
10000258:	00c12403          	lw	s0,12(sp)
1000025c:	01010113          	addi	sp,sp,16
10000260:	00008067          	ret

10000264 <main>:
10000264:	fe010113          	addi	sp,sp,-32
10000268:	00812e23          	sw	s0,28(sp)
1000026c:	02010413          	addi	s0,sp,32
10000270:	f00037b7          	lui	a5,0xf0003
10000274:	80078793          	addi	a5,a5,-2048 # f0002800 <_etext+0xe00024a8>
10000278:	00100713          	li	a4,1
1000027c:	00e7a023          	sw	a4,0(a5)
10000280:	f00037b7          	lui	a5,0xf0003
10000284:	80478793          	addi	a5,a5,-2044 # f0002804 <_etext+0xe00024ac>
10000288:	00100713          	li	a4,1
1000028c:	00e7a023          	sw	a4,0(a5)
10000290:	f00037b7          	lui	a5,0xf0003
10000294:	80878793          	addi	a5,a5,-2040 # f0002808 <_etext+0xe00024b0>
10000298:	00100713          	li	a4,1
1000029c:	00e7a023          	sw	a4,0(a5)
100002a0:	f00037b7          	lui	a5,0xf0003
100002a4:	80c78793          	addi	a5,a5,-2036 # f000280c <_etext+0xe00024b4>
100002a8:	00100713          	li	a4,1
100002ac:	00e7a023          	sw	a4,0(a5)
100002b0:	f00037b7          	lui	a5,0xf0003
100002b4:	81478793          	addi	a5,a5,-2028 # f0002814 <_etext+0xe00024bc>
100002b8:	00100713          	li	a4,1
100002bc:	00e7a023          	sw	a4,0(a5)
100002c0:	f00037b7          	lui	a5,0xf0003
100002c4:	81478793          	addi	a5,a5,-2028 # f0002814 <_etext+0xe00024bc>
100002c8:	0007a023          	sw	zero,0(a5)
100002cc:	f00037b7          	lui	a5,0xf0003
100002d0:	81478793          	addi	a5,a5,-2028 # f0002814 <_etext+0xe00024bc>
100002d4:	0007a023          	sw	zero,0(a5)
100002d8:	f00037b7          	lui	a5,0xf0003
100002dc:	80878793          	addi	a5,a5,-2040 # f0002808 <_etext+0xe00024b0>
100002e0:	00100713          	li	a4,1
100002e4:	00e7a023          	sw	a4,0(a5)
100002e8:	f00037b7          	lui	a5,0xf0003
100002ec:	80c78793          	addi	a5,a5,-2036 # f000280c <_etext+0xe00024b4>
100002f0:	00100713          	li	a4,1
100002f4:	00e7a023          	sw	a4,0(a5)
100002f8:	fe042623          	sw	zero,-20(s0)
100002fc:	03c0006f          	j	10000338 <main+0xd4>
10000300:	f00037b7          	lui	a5,0xf0003
10000304:	81478793          	addi	a5,a5,-2028 # f0002814 <_etext+0xe00024bc>
10000308:	00100713          	li	a4,1
1000030c:	00e7a023          	sw	a4,0(a5)
10000310:	f00037b7          	lui	a5,0xf0003
10000314:	81478793          	addi	a5,a5,-2028 # f0002814 <_etext+0xe00024bc>
10000318:	00100713          	li	a4,1
1000031c:	00e7a023          	sw	a4,0(a5)
10000320:	f00037b7          	lui	a5,0xf0003
10000324:	81478793          	addi	a5,a5,-2028 # f0002814 <_etext+0xe00024bc>
10000328:	0007a023          	sw	zero,0(a5)
1000032c:	fec42783          	lw	a5,-20(s0)
10000330:	00178793          	addi	a5,a5,1
10000334:	fef42623          	sw	a5,-20(s0)
10000338:	fec42703          	lw	a4,-20(s0)
1000033c:	00900793          	li	a5,9
10000340:	fce7d0e3          	bge	a5,a4,10000300 <main+0x9c>
10000344:	00000013          	nop
10000348:	00000013          	nop
1000034c:	01c12403          	lw	s0,28(sp)
10000350:	02010113          	addi	sp,sp,32
10000354:	00008067          	ret

Disassembly of section .bss:

01000000 <flag>:
	...

Disassembly of section .riscv.attributes:

00000000 <.riscv.attributes>:
   0:	1b41                	addi	s6,s6,-16
   2:	0000                	unimp
   4:	7200                	flw	fs0,32(a2)
   6:	7369                	lui	t1,0xffffa
   8:	01007663          	bgeu	zero,a6,14 <__DYNAMIC+0x14>
   c:	0011                	c.nop	4
   e:	0000                	unimp
  10:	1004                	addi	s1,sp,32
  12:	7205                	lui	tp,0xfffe1
  14:	3376                	fld	ft6,376(sp)
  16:	6932                	flw	fs2,12(sp)
  18:	7032                	flw	ft0,44(sp)
  1a:	0030                	addi	a2,sp,8

Disassembly of section .comment:

00000000 <.comment>:
   0:	3a434347          	fmsub.d	ft6,ft6,ft4,ft7,rmm
   4:	2820                	fld	fs0,80(s0)
   6:	29554e47          	fmsub.s	ft8,fa0,fs5,ft5,rmm
   a:	3920                	fld	fs0,112(a0)
   c:	322e                	fld	ft4,232(sp)
   e:	302e                	fld	ft0,232(sp)
	...
