
gpio_mgmt.elf:     file format elf32-littleriscv


Disassembly of section .text:

10000000 <_ftext>:
10000000:	1980006f          	j	10000198 <_crt0>
	...

10000010 <_irq_vector>:
10000010:	ff010113          	addi	sp,sp,-16
10000014:	00512223          	sw	t0,4(sp)
10000018:	00112423          	sw	ra,8(sp)
1000001c:	0001428b          	0x1428b
10000020:	00512623          	sw	t0,12(sp)
10000024:	000280e7          	jalr	t0
10000028:	00c12283          	lw	t0,12(sp)
1000002c:	0202a10b          	0x202a10b
10000030:	00812083          	lw	ra,8(sp)
10000034:	00412283          	lw	t0,4(sp)
10000038:	01010113          	addi	sp,sp,16
1000003c:	0400000b          	0x400000b

10000040 <_irq>:
10000040:	0200a10b          	0x200a10b
10000044:	0201218b          	0x201218b
10000048:	010000b7          	lui	ra,0x1000
1000004c:	00008093          	mv	ra,ra
10000050:	0000410b          	0x410b
10000054:	0020a023          	sw	sp,0(ra) # 1000000 <_edata>
10000058:	0001410b          	0x1410b
1000005c:	0020a223          	sw	sp,4(ra)
10000060:	0001c10b          	0x1c10b
10000064:	0020a423          	sw	sp,8(ra)
10000068:	0030a623          	sw	gp,12(ra)
1000006c:	0040a823          	sw	tp,16(ra)
10000070:	0050aa23          	sw	t0,20(ra)
10000074:	0060ac23          	sw	t1,24(ra)
10000078:	0070ae23          	sw	t2,28(ra)
1000007c:	0280a023          	sw	s0,32(ra)
10000080:	0290a223          	sw	s1,36(ra)
10000084:	02a0a423          	sw	a0,40(ra)
10000088:	02b0a623          	sw	a1,44(ra)
1000008c:	02c0a823          	sw	a2,48(ra)
10000090:	02d0aa23          	sw	a3,52(ra)
10000094:	02e0ac23          	sw	a4,56(ra)
10000098:	02f0ae23          	sw	a5,60(ra)
1000009c:	0500a023          	sw	a6,64(ra)
100000a0:	0510a223          	sw	a7,68(ra)
100000a4:	0520a423          	sw	s2,72(ra)
100000a8:	0530a623          	sw	s3,76(ra)
100000ac:	0540a823          	sw	s4,80(ra)
100000b0:	0550aa23          	sw	s5,84(ra)
100000b4:	0560ac23          	sw	s6,88(ra)
100000b8:	0570ae23          	sw	s7,92(ra)
100000bc:	0780a023          	sw	s8,96(ra)
100000c0:	0790a223          	sw	s9,100(ra)
100000c4:	07a0a423          	sw	s10,104(ra)
100000c8:	07b0a623          	sw	s11,108(ra)
100000cc:	07c0a823          	sw	t3,112(ra)
100000d0:	07d0aa23          	sw	t4,116(ra)
100000d4:	07e0ac23          	sw	t5,120(ra)
100000d8:	07f0ae23          	sw	t6,124(ra)
100000dc:	0000c28b          	0xc28b
100000e0:	f1000317          	auipc	t1,0xf1000
100000e4:	3a030313          	addi	t1,t1,928 # 1000480 <_irq_pending>
100000e8:	00532023          	sw	t0,0(t1)
100000ec:	01000137          	lui	sp,0x1000
100000f0:	48010113          	addi	sp,sp,1152 # 1000480 <_irq_pending>
100000f4:	260000ef          	jal	ra,10000354 <isr>
100000f8:	010000b7          	lui	ra,0x1000
100000fc:	00008093          	mv	ra,ra
10000100:	0000a103          	lw	sp,0(ra) # 1000000 <_edata>
10000104:	0201200b          	0x201200b
10000108:	0040a103          	lw	sp,4(ra)
1000010c:	0201208b          	0x201208b
10000110:	0080a103          	lw	sp,8(ra)
10000114:	0201210b          	0x201210b
10000118:	00c0a183          	lw	gp,12(ra)
1000011c:	0100a203          	lw	tp,16(ra)
10000120:	0140a283          	lw	t0,20(ra)
10000124:	0180a303          	lw	t1,24(ra)
10000128:	01c0a383          	lw	t2,28(ra)
1000012c:	0200a403          	lw	s0,32(ra)
10000130:	0240a483          	lw	s1,36(ra)
10000134:	0280a503          	lw	a0,40(ra)
10000138:	02c0a583          	lw	a1,44(ra)
1000013c:	0300a603          	lw	a2,48(ra)
10000140:	0340a683          	lw	a3,52(ra)
10000144:	0380a703          	lw	a4,56(ra)
10000148:	03c0a783          	lw	a5,60(ra)
1000014c:	0400a803          	lw	a6,64(ra)
10000150:	0440a883          	lw	a7,68(ra)
10000154:	0480a903          	lw	s2,72(ra)
10000158:	04c0a983          	lw	s3,76(ra)
1000015c:	0500aa03          	lw	s4,80(ra)
10000160:	0540aa83          	lw	s5,84(ra)
10000164:	0580ab03          	lw	s6,88(ra)
10000168:	05c0ab83          	lw	s7,92(ra)
1000016c:	0600ac03          	lw	s8,96(ra)
10000170:	0640ac83          	lw	s9,100(ra)
10000174:	0680ad03          	lw	s10,104(ra)
10000178:	06c0ad83          	lw	s11,108(ra)
1000017c:	0700ae03          	lw	t3,112(ra)
10000180:	0740ae83          	lw	t4,116(ra)
10000184:	0780af03          	lw	t5,120(ra)
10000188:	07c0af83          	lw	t6,124(ra)
1000018c:	0000c08b          	0xc08b
10000190:	0001410b          	0x1410b
10000194:	00008067          	ret

10000198 <_crt0>:
10000198:	00000093          	li	ra,0
1000019c:	00000113          	li	sp,0
100001a0:	00000193          	li	gp,0
100001a4:	00000213          	li	tp,0
100001a8:	00000293          	li	t0,0
100001ac:	00000313          	li	t1,0
100001b0:	00000393          	li	t2,0
100001b4:	00000413          	li	s0,0
100001b8:	00000493          	li	s1,0
100001bc:	00000513          	li	a0,0
100001c0:	00000593          	li	a1,0
100001c4:	00000613          	li	a2,0
100001c8:	00000693          	li	a3,0
100001cc:	00000713          	li	a4,0
100001d0:	00000793          	li	a5,0
100001d4:	00000813          	li	a6,0
100001d8:	00000893          	li	a7,0
100001dc:	00000913          	li	s2,0
100001e0:	00000993          	li	s3,0
100001e4:	00000a13          	li	s4,0
100001e8:	00000a93          	li	s5,0
100001ec:	00000b13          	li	s6,0
100001f0:	00000b93          	li	s7,0
100001f4:	00000c13          	li	s8,0
100001f8:	00000c93          	li	s9,0
100001fc:	00000d13          	li	s10,0
10000200:	00000d93          	li	s11,0
10000204:	00000e13          	li	t3,0
10000208:	00000e93          	li	t4,0
1000020c:	00000f13          	li	t5,0
10000210:	00000f93          	li	t6,0
10000214:	fff00293          	li	t0,-1
10000218:	0602e00b          	0x602e00b
1000021c:	f1000317          	auipc	t1,0xf1000
10000220:	26830313          	addi	t1,t1,616 # 1000484 <_irq_mask>
10000224:	00532023          	sw	t0,0(t1)
10000228:	00000297          	auipc	t0,0x0
1000022c:	28828293          	addi	t0,t0,648 # 100004b0 <_etext>
10000230:	f1000317          	auipc	t1,0xf1000
10000234:	dd030313          	addi	t1,t1,-560 # 1000000 <_edata>
10000238:	f1000397          	auipc	t2,0xf1000
1000023c:	dc838393          	addi	t2,t2,-568 # 1000000 <_edata>
10000240:	0002ae03          	lw	t3,0(t0)
10000244:	01c32023          	sw	t3,0(t1)
10000248:	00428293          	addi	t0,t0,4
1000024c:	00430313          	addi	t1,t1,4
10000250:	fe7368e3          	bltu	t1,t2,10000240 <_crt0+0xa8>
10000254:	f1000117          	auipc	sp,0xf1000
10000258:	5ac10113          	addi	sp,sp,1452 # 1000800 <_fstack>
1000025c:	00000297          	auipc	t0,0x0
10000260:	de428293          	addi	t0,t0,-540 # 10000040 <_irq>
10000264:	0202a10b          	0x202a10b
10000268:	168000ef          	jal	ra,100003d0 <main>
1000026c:	0000006f          	j	1000026c <_crt0+0xd4>

10000270 <_irq_enable>:
10000270:	f1000297          	auipc	t0,0xf1000
10000274:	21828293          	addi	t0,t0,536 # 1000488 <_irq_enabled>
10000278:	00100313          	li	t1,1
1000027c:	0062a023          	sw	t1,0(t0)
10000280:	f1000297          	auipc	t0,0xf1000
10000284:	20428293          	addi	t0,t0,516 # 1000484 <_irq_mask>
10000288:	0002a283          	lw	t0,0(t0)
1000028c:	0602e00b          	0x602e00b
10000290:	00008067          	ret

10000294 <_irq_disable>:
10000294:	fff00293          	li	t0,-1
10000298:	0602e00b          	0x602e00b
1000029c:	f1000297          	auipc	t0,0xf1000
100002a0:	1ec28293          	addi	t0,t0,492 # 1000488 <_irq_enabled>
100002a4:	0002a023          	sw	zero,0(t0)
100002a8:	00008067          	ret

100002ac <_irq_setmask>:
100002ac:	f1000297          	auipc	t0,0xf1000
100002b0:	1d828293          	addi	t0,t0,472 # 1000484 <_irq_mask>
100002b4:	00a2a023          	sw	a0,0(t0)
100002b8:	f1000297          	auipc	t0,0xf1000
100002bc:	1d028293          	addi	t0,t0,464 # 1000488 <_irq_enabled>
100002c0:	0002a283          	lw	t0,0(t0)
100002c4:	00028463          	beqz	t0,100002cc <_irq_setmask+0x20>
100002c8:	0605600b          	0x605600b
100002cc:	00008067          	ret

100002d0 <flush_cpu_icache>:
100002d0:	ff010113          	addi	sp,sp,-16
100002d4:	00812623          	sw	s0,12(sp)
100002d8:	01010413          	addi	s0,sp,16
100002dc:	00000013          	nop
100002e0:	00c12403          	lw	s0,12(sp)
100002e4:	01010113          	addi	sp,sp,16
100002e8:	00008067          	ret

100002ec <flush_cpu_dcache>:
100002ec:	ff010113          	addi	sp,sp,-16
100002f0:	00812623          	sw	s0,12(sp)
100002f4:	01010413          	addi	s0,sp,16
100002f8:	00000013          	nop
100002fc:	00c12403          	lw	s0,12(sp)
10000300:	01010113          	addi	sp,sp,16
10000304:	00008067          	ret

10000308 <irq_getmask>:
10000308:	ff010113          	addi	sp,sp,-16
1000030c:	00812623          	sw	s0,12(sp)
10000310:	01010413          	addi	s0,sp,16
10000314:	010007b7          	lui	a5,0x1000
10000318:	4847a783          	lw	a5,1156(a5) # 1000484 <_irq_mask>
1000031c:	fff7c793          	not	a5,a5
10000320:	00078513          	mv	a0,a5
10000324:	00c12403          	lw	s0,12(sp)
10000328:	01010113          	addi	sp,sp,16
1000032c:	00008067          	ret

10000330 <irq_pending>:
10000330:	ff010113          	addi	sp,sp,-16
10000334:	00812623          	sw	s0,12(sp)
10000338:	01010413          	addi	s0,sp,16
1000033c:	010007b7          	lui	a5,0x1000
10000340:	4807a783          	lw	a5,1152(a5) # 1000480 <_irq_pending>
10000344:	00078513          	mv	a0,a5
10000348:	00c12403          	lw	s0,12(sp)
1000034c:	01010113          	addi	sp,sp,16
10000350:	00008067          	ret

10000354 <isr>:
10000354:	fe010113          	addi	sp,sp,-32
10000358:	00112e23          	sw	ra,28(sp)
1000035c:	00812c23          	sw	s0,24(sp)
10000360:	00912a23          	sw	s1,20(sp)
10000364:	02010413          	addi	s0,sp,32
10000368:	fc9ff0ef          	jal	ra,10000330 <irq_pending>
1000036c:	00050493          	mv	s1,a0
10000370:	f99ff0ef          	jal	ra,10000308 <irq_getmask>
10000374:	00050793          	mv	a5,a0
10000378:	00f4f7b3          	and	a5,s1,a5
1000037c:	fef42623          	sw	a5,-20(s0)
10000380:	00000013          	nop
10000384:	01c12083          	lw	ra,28(sp)
10000388:	01812403          	lw	s0,24(sp)
1000038c:	01412483          	lw	s1,20(sp)
10000390:	02010113          	addi	sp,sp,32
10000394:	00008067          	ret

10000398 <flush_cpu_icache>:
10000398:	ff010113          	addi	sp,sp,-16
1000039c:	00812623          	sw	s0,12(sp)
100003a0:	01010413          	addi	s0,sp,16
100003a4:	00000013          	nop
100003a8:	00c12403          	lw	s0,12(sp)
100003ac:	01010113          	addi	sp,sp,16
100003b0:	00008067          	ret

100003b4 <flush_cpu_dcache>:
100003b4:	ff010113          	addi	sp,sp,-16
100003b8:	00812623          	sw	s0,12(sp)
100003bc:	01010413          	addi	s0,sp,16
100003c0:	00000013          	nop
100003c4:	00c12403          	lw	s0,12(sp)
100003c8:	01010113          	addi	sp,sp,16
100003cc:	00008067          	ret

100003d0 <main>:
100003d0:	fe010113          	addi	sp,sp,-32
100003d4:	00812e23          	sw	s0,28(sp)
100003d8:	02010413          	addi	s0,sp,32
100003dc:	820037b7          	lui	a5,0x82003
100003e0:	80078793          	addi	a5,a5,-2048 # 82002800 <_etext+0x72002350>
100003e4:	00100713          	li	a4,1
100003e8:	00e7a023          	sw	a4,0(a5)
100003ec:	820037b7          	lui	a5,0x82003
100003f0:	80478793          	addi	a5,a5,-2044 # 82002804 <_etext+0x72002354>
100003f4:	00100713          	li	a4,1
100003f8:	00e7a023          	sw	a4,0(a5)
100003fc:	820037b7          	lui	a5,0x82003
10000400:	80878793          	addi	a5,a5,-2040 # 82002808 <_etext+0x72002358>
10000404:	00100713          	li	a4,1
10000408:	00e7a023          	sw	a4,0(a5)
1000040c:	820037b7          	lui	a5,0x82003
10000410:	80c78793          	addi	a5,a5,-2036 # 8200280c <_etext+0x7200235c>
10000414:	00100713          	li	a4,1
10000418:	00e7a023          	sw	a4,0(a5)
1000041c:	820037b7          	lui	a5,0x82003
10000420:	81478793          	addi	a5,a5,-2028 # 82002814 <_etext+0x72002364>
10000424:	00100713          	li	a4,1
10000428:	00e7a023          	sw	a4,0(a5)
1000042c:	820037b7          	lui	a5,0x82003
10000430:	81478793          	addi	a5,a5,-2028 # 82002814 <_etext+0x72002364>
10000434:	0007a023          	sw	zero,0(a5)
10000438:	820037b7          	lui	a5,0x82003
1000043c:	81478793          	addi	a5,a5,-2028 # 82002814 <_etext+0x72002364>
10000440:	0007a023          	sw	zero,0(a5)
10000444:	820037b7          	lui	a5,0x82003
10000448:	80878793          	addi	a5,a5,-2040 # 82002808 <_etext+0x72002358>
1000044c:	00100713          	li	a4,1
10000450:	00e7a023          	sw	a4,0(a5)
10000454:	820037b7          	lui	a5,0x82003
10000458:	80c78793          	addi	a5,a5,-2036 # 8200280c <_etext+0x7200235c>
1000045c:	0007a023          	sw	zero,0(a5)
10000460:	fe042623          	sw	zero,-20(s0)
10000464:	02c0006f          	j	10000490 <main+0xc0>
10000468:	820037b7          	lui	a5,0x82003
1000046c:	81478793          	addi	a5,a5,-2028 # 82002814 <_etext+0x72002364>
10000470:	00100713          	li	a4,1
10000474:	00e7a023          	sw	a4,0(a5)
10000478:	820037b7          	lui	a5,0x82003
1000047c:	81478793          	addi	a5,a5,-2028 # 82002814 <_etext+0x72002364>
10000480:	0007a023          	sw	zero,0(a5)
10000484:	fec42783          	lw	a5,-20(s0)
10000488:	00178793          	addi	a5,a5,1
1000048c:	fef42623          	sw	a5,-20(s0)
10000490:	fec42703          	lw	a4,-20(s0)
10000494:	00900793          	li	a5,9
10000498:	fce7d8e3          	bge	a5,a4,10000468 <main+0x98>
1000049c:	00000013          	nop
100004a0:	00000013          	nop
100004a4:	01c12403          	lw	s0,28(sp)
100004a8:	02010113          	addi	sp,sp,32
100004ac:	00008067          	ret

Disassembly of section .bss:

01000000 <_fbss>:
	...

01000480 <_irq_pending>:
 1000480:	0000                	unimp
	...

01000484 <_irq_mask>:
 1000484:	0000                	unimp
	...

01000488 <_irq_enabled>:
	...

Disassembly of section .riscv.attributes:

00000000 <.riscv.attributes>:
   0:	1b41                	addi	s6,s6,-16
   2:	0000                	unimp
   4:	7200                	flw	fs0,32(a2)
   6:	7369                	lui	t1,0xffffa
   8:	01007663          	bgeu	zero,a6,14 <__DYNAMIC+0x14>
   c:	0011                	c.nop	4
   e:	0000                	unimp
  10:	1004                	addi	s1,sp,32
  12:	7205                	lui	tp,0xfffe1
  14:	3376                	fld	ft6,376(sp)
  16:	6932                	flw	fs2,12(sp)
  18:	7032                	flw	ft0,44(sp)
  1a:	0030                	addi	a2,sp,8

Disassembly of section .comment:

00000000 <.comment>:
   0:	3a434347          	fmsub.d	ft6,ft6,ft4,ft7,rmm
   4:	2820                	fld	fs0,80(s0)
   6:	29554e47          	fmsub.s	ft8,fa0,fs5,ft5,rmm
   a:	3920                	fld	fs0,112(a0)
   c:	322e                	fld	ft4,232(sp)
   e:	302e                	fld	ft0,232(sp)
	...
